; Function Attrs: nounwind uwtable
define dso_local void @zsetTypeMaybeConvert(ptr noundef %0, i64 noundef %1) local_unnamed_addr #0 {
  %3 = load i32, ptr %0, align 8
  %4 = and i32 %3, 240
  %5 = icmp eq i32 %4, 176
  %6 = load i64, ptr getelementptr inbounds nuw (i8, ptr @server, i64 7736), align 8
  %7 = icmp ugt i64 %1, %6
  %or.cond = select i1 %5, i1 %7, i1 false
  br i1 %or.cond, label %8, label %9

8:                                                ; preds = %2
  tail call void @zsetConvertAndExpand(ptr noundef nonnull %0, i32 noundef 7, i64 noundef %1)
  br label %9

9:                                                ; preds = %8, %2
  ret void
}